target datalayout = "e-m:e-p270:32:32-p271:32:32-p272:64:64-i64:64-i128:128-f80:128-n8:16:32:64-S128"
target triple = "x86_64-pc-linux-gnu"

%"class.pxrInternal_v0_24__pxrReserved__::GfMatrix2f" = type { %"class.pxrInternal_v0_24__pxrReserved__::GfMatrixData" }
%"class.pxrInternal_v0_24__pxrReserved__::GfMatrixData" = type { [4 x float] }

; Function Attrs: mustprogress nounwind uwtable
define linkonce_odr noundef ptr @_ZNK32pxrInternal_v0_24__pxrReserved__12GfMatrixDataIfLi2ELi2EEixEi(ptr noundef nonnull align 4 dereferenceable(16) %0, i32 noundef %1) #2 comdat align 2 {
  %3 = alloca ptr, align 8
  %4 = alloca i32, align 4
  store ptr %0, ptr %3, align 8
  store i32 %1, ptr %4, align 4
  %5 = load ptr, ptr %3, align 8
  %6 = getelementptr inbounds nuw %"class.pxrInternal_v0_24__pxrReserved__::GfMatrixData", ptr %5, i32 0, i32 0
  %7 = getelementptr inbounds [4 x float], ptr %6, i64 0, i64 0
  %8 = load i32, ptr %4, align 4
  %9 = mul nsw i32 %8, 2
  %10 = sext i32 %9 to i64
  %11 = getelementptr inbounds float, ptr %7, i64 %10
  ret ptr %11
}

; Function Attrs: mustprogress nounwind uwtable
define linkonce_odr noundef zeroext i1 @_ZN32pxrInternal_v0_24__pxrReserved__9GfIsCloseEddd(double noundef %0, double noundef %1, double noundef %2) #2 comdat {
  %4 = alloca double, align 8
  %5 = alloca double, align 8
  %6 = alloca double, align 8
  store double %0, ptr %4, align 8
  store double %1, ptr %5, align 8
  store double %2, ptr %6, align 8
  %7 = load double, ptr %4, align 8
  %8 = load double, ptr %5, align 8
  %9 = fsub double %7, %8
  %10 = call double @llvm.fabs.f64(double %9)
  %11 = load double, ptr %6, align 8
  %12 = fcmp olt double %10, %11
  ret i1 %12
}

; Function Attrs: mustprogress uwtable
define linkonce_odr noundef ptr @_ZNK32pxrInternal_v0_24__pxrReserved__10GfMatrix2fixEi(ptr noundef nonnull align 4 dereferenceable(16) %0, i32 noundef %1) #0 comdat align 2 {
  %3 = alloca ptr, align 8
  %4 = alloca i32, align 4
  store ptr %0, ptr %3, align 8
  store i32 %1, ptr %4, align 4
  %5 = load ptr, ptr %3, align 8
  %6 = getelementptr inbounds nuw %"class.pxrInternal_v0_24__pxrReserved__::GfMatrix2f", ptr %5, i32 0, i32 0
  %7 = load i32, ptr %4, align 4
  %8 = call noundef ptr @_ZNK32pxrInternal_v0_24__pxrReserved__12GfMatrixDataIfLi2ELi2EEixEi(ptr noundef nonnull align 4 dereferenceable(16) %6, i32 noundef %7)
  ret ptr %8
}

; Function Attrs: mustprogress uwtable
define noundef zeroext i1 @_ZN32pxrInternal_v0_24__pxrReserved__9GfIsCloseERKNS_10GfMatrix2fES2_d(ptr noundef nonnull align 4 dereferenceable(16) %0, ptr noundef nonnull align 4 dereferenceable(16) %1, double noundef %2) #0 {
  %4 = alloca i1, align 1
  %5 = alloca ptr, align 8
  %6 = alloca ptr, align 8
  %7 = alloca double, align 8
  %8 = alloca i64, align 8
  %9 = alloca i64, align 8
  store ptr %0, ptr %5, align 8
  store ptr %1, ptr %6, align 8
  store double %2, ptr %7, align 8
  store i64 0, ptr %8, align 8
  br label %10

10:                                               ; preds = %42, %3
  %11 = load i64, ptr %8, align 8
  %12 = icmp ult i64 %11, 2
  br i1 %12, label %13, label %45

13:                                               ; preds = %10
  store i64 0, ptr %9, align 8
  br label %14

14:                                               ; preds = %38, %13
  %15 = load i64, ptr %9, align 8
  %16 = icmp ult i64 %15, 2
  br i1 %16, label %17, label %41

17:                                               ; preds = %14
  %18 = load ptr, ptr %5, align 8
  %19 = load i64, ptr %8, align 8
  %20 = trunc i64 %19 to i32
  %21 = call noundef ptr @_ZNK32pxrInternal_v0_24__pxrReserved__10GfMatrix2fixEi(ptr noundef nonnull align 4 dereferenceable(16) %18, i32 noundef %20)
  %22 = load i64, ptr %9, align 8
  %23 = getelementptr inbounds float, ptr %21, i64 %22
  %24 = load float, ptr %23, align 4
  %25 = fpext float %24 to double
  %26 = load ptr, ptr %6, align 8
  %27 = load i64, ptr %8, align 8
  %28 = trunc i64 %27 to i32
  %29 = call noundef ptr @_ZNK32pxrInternal_v0_24__pxrReserved__10GfMatrix2fixEi(ptr noundef nonnull align 4 dereferenceable(16) %26, i32 noundef %28)
  %30 = load i64, ptr %9, align 8
  %31 = getelementptr inbounds float, ptr %29, i64 %30
  %32 = load float, ptr %31, align 4
  %33 = fpext float %32 to double
  %34 = load double, ptr %7, align 8
  %35 = call noundef zeroext i1 @_ZN32pxrInternal_v0_24__pxrReserved__9GfIsCloseEddd(double noundef %25, double noundef %33, double noundef %34)
  br i1 %35, label %37, label %36

36:                                               ; preds = %17
  store i1 false, ptr %4, align 1
  br label %46

37:                                               ; preds = %17
  br label %38

38:                                               ; preds = %37
  %39 = load i64, ptr %9, align 8
  %40 = add i64 %39, 1
  store i64 %40, ptr %9, align 8
  br label %14, !llvm.loop !9

41:                                               ; preds = %14
  br label %42

42:                                               ; preds = %41
  %43 = load i64, ptr %8, align 8
  %44 = add i64 %43, 1
  store i64 %44, ptr %8, align 8
  br label %10, !llvm.loop !10

45:                                               ; preds = %10
  store i1 true, ptr %4, align 1
  br label %46

46:                                               ; preds = %45, %36
  %47 = load i1, ptr %4, align 1
  ret i1 %47
}