; Function Attrs: mustprogress nofree norecurse nosync nounwind willreturn memory(argmem: read) uwtable
define noundef zeroext i1 @_ZN32pxrInternal_v0_24__pxrReserved__9GfIsCloseERKNS_10GfMatrix2fES2_d(ptr noundef nonnull readonly align 4 captures(none) dereferenceable(16) %0, ptr noundef nonnull readonly align 4 captures(none) dereferenceable(16) %1, double noundef %2) local_unnamed_addr #6 {
  br label %.preheader

.preheader:                                       ; preds = %3, %18
  %.not = phi i1 [ true, %3 ], [ false, %18 ]
  %.01116 = phi i64 [ 0, %3 ], [ 2, %18 ]
  %4 = getelementptr inbounds nuw float, ptr %0, i64 %.01116
  %5 = getelementptr inbounds nuw float, ptr %1, i64 %.01116
  br label %7

6:                                                ; preds = %7
  br i1 %8, label %7, label %18, !llvm.loop !9

7:                                                ; preds = %.preheader, %6
  %8 = phi i1 [ true, %.preheader ], [ false, %6 ]
  %.015 = phi i64 [ 0, %.preheader ], [ 1, %6 ]
  %9 = getelementptr inbounds nuw float, ptr %4, i64 %.015
  %10 = load float, ptr %9, align 4
  %11 = fpext float %10 to double
  %12 = getelementptr inbounds nuw float, ptr %5, i64 %.015
  %13 = load float, ptr %12, align 4
  %14 = fpext float %13 to double
  %15 = fsub double %11, %14
  %16 = tail call double @llvm.fabs.f64(double %15)
  %17 = fcmp olt double %16, %2
  br i1 %17, label %6, label %.loopexit

18:                                               ; preds = %6
  br i1 %.not, label %.preheader, label %.loopexit, !llvm.loop !10

.loopexit:                                        ; preds = %18, %7
  ret i1 %17
}